Certificate:
    Data:
        Version: 3 (0x2)
        Serial Number: 0 (0x0)
        Signature Algorithm: sha256WithRSAEncryption
        Issuer: CN=My Root CA
        Validity
            Not Before: Mar 27 18:01:31 2023 GMT
            Not After : Aug 12 18:01:31 2050 GMT
        Subject: CN=My Root CA
        Subject Public Key Info:
            Public Key Algorithm: rsaEncryption
                RSA Public-Key: (2048 bit)
                Modulus:
                    00:b1:d0:7b:0f:4c:e8:70:e1:d2:51:f8:05:13:4f:
                    8f:81:9e:51:5a:18:fa:3a:c2:92:db:22:bc:80:9d:
                    08:43:ab:10:bb:34:39:9f:cc:a8:ae:59:7b:8e:64:
                    6d:56:4f:4b:32:24:42:40:5d:29:61:6f:3d:11:a7:
                    8d:a6:ea:2b:99:22:55:fc:4d:57:3b:84:55:43:ae:
                    54:df:6a:48:3d:b7:d9:ed:1d:5e:e1:01:21:f6:2b:
                    5e:48:1b:f4:56:0c:70:3a:e0:32:d4:bc:27:bf:25:
                    0b:1c:41:ae:74:bb:75:cd:62:7d:b1:c0:64:1e:69:
                    cc:30:a5:7f:9b:2c:87:70:03:a3:a1:18:f4:f2:9f:
                    9b:8f:8d:6d:b5:de:b2:28:af:60:64:f7:b6:59:3d:
                    7b:58:4a:b7:aa:68:9a:26:f8:f3:16:16:39:ca:f4:
                    6a:8c:d6:e1:6c:2a:8b:f2:0c:5b:a4:df:68:87:e1:
                    7b:70:c3:8a:82:14:8d:52:cb:77:a3:e7:1f:4d:b2:
                    f1:7b:4b:e6:17:16:73:c0:b2:3f:14:af:ee:f6:8d:
                    85:a2:1e:70:63:97:cb:a6:16:ca:98:99:47:e4:dc:
                    60:af:ec:3a:8b:de:3d:e6:ef:d8:eb:9e:d1:27:eb:
                    8a:20:db:1b:69:b1:90:7a:dd:a1:94:38:c5:a0:22:
                    52:df
                Exponent: 65537 (0x10001)
        X509v3 extensions:
            X509v3 Basic Constraints: critical
                CA:TRUE
            X509v3 Key Usage: critical
                Certificate Sign
            X509v3 Subject Alternative Name: 
                IP Address:127.0.0.1, IP Address:192.168.73.120, IP Address:192.168.73.121
    Signature Algorithm: sha256WithRSAEncryption
         2e:59:25:1b:fe:c0:89:82:b9:e8:e6:08:e4:a1:c6:ca:c2:11:
         0e:fe:64:c5:08:22:24:5b:f0:32:c3:a3:66:96:d8:78:54:56:
         3e:0e:4b:7e:a0:bc:7d:ef:fd:af:a1:c0:2e:b2:b6:40:6e:cd:
         9a:57:81:ea:4f:cd:6f:0b:a9:db:4a:38:d0:ad:16:42:3c:d7:
         9b:ac:50:bb:83:bf:05:31:04:77:85:4f:c1:16:dc:99:dd:8b:
         8b:2f:54:0f:cf:64:af:52:88:7f:f0:f9:77:f4:3f:d3:86:21:
         f5:50:38:40:06:72:23:e1:ec:02:c3:91:8b:16:71:d4:c7:ee:
         bf:fe:47:65:4e:41:b2:eb:93:9c:e3:ea:4a:d1:30:9b:ae:f1:
         5a:ca:97:a0:dd:ac:fd:f8:65:42:ae:67:af:3c:a9:ce:4b:d9:
         7e:38:15:ac:f4:25:12:f2:6a:76:6d:c9:99:1d:16:6d:57:cc:
         7e:2a:51:4a:67:38:8d:00:8b:c7:5c:f3:2d:55:55:1e:98:d0:
         78:86:3a:86:0c:eb:ea:35:c0:29:b1:14:e4:77:11:5f:55:9f:
         4c:64:00:1f:fb:78:d1:93:da:f1:49:97:00:77:59:f2:00:05:
         d7:a7:b1:fb:46:d0:a1:5c:c9:0b:21:48:b6:5e:c0:44:be:f9:
         b6:94:9a:d5
-----BEGIN CERTIFICATE-----
MIIC5zCCAc+gAwIBAgIBADANBgkqhkiG9w0BAQsFADAVMRMwEQYDVQQDDApNeSBS
b290IENBMCAXDTIzMDMyNzE4MDEzMVoYDzIwNTAwODEyMTgwMTMxWjAVMRMwEQYD
VQQDDApNeSBSb290IENBMIIBIjANBgkqhkiG9w0BAQEFAAOCAQ8AMIIBCgKCAQEA
sdB7D0zocOHSUfgFE0+PgZ5RWhj6OsKS2yK8gJ0IQ6sQuzQ5n8yorll7jmRtVk9L
MiRCQF0pYW89EaeNpuormSJV/E1XO4RVQ65U32pIPbfZ7R1e4QEh9iteSBv0Vgxw
OuAy1LwnvyULHEGudLt1zWJ9scBkHmnMMKV/myyHcAOjoRj08p+bj41ttd6yKK9g
ZPe2WT17WEq3qmiaJvjzFhY5yvRqjNbhbCqL8gxbpN9oh+F7cMOKghSNUst3o+cf
TbLxe0vmFxZzwLI/FK/u9o2Foh5wY5fLphbKmJlH5Nxgr+w6i9495u/Y657RJ+uK
INsbabGQet2hlDjFoCJS3wIDAQABo0AwPjAPBgNVHRMBAf8EBTADAQH/MA4GA1Ud
DwEB/wQEAwICBDAbBgNVHREEFDAShwR/AAABhwTAqEl4hwTAqEl5MA0GCSqGSIb3
DQEBCwUAA4IBAQAuWSUb/sCJgrno5gjkocbKwhEO/mTFCCIkW/Ayw6Nmlth4VFY+
Dkt+oLx97/2vocAusrZAbs2aV4HqT81vC6nbSjjQrRZCPNebrFC7g78FMQR3hU/B
FtyZ3YuLL1QPz2SvUoh/8Pl39D/ThiH1UDhABnIj4ewCw5GLFnHUx+6//kdlTkGy
65Oc4+pK0TCbrvFaypeg3az9+GVCrmevPKnOS9l+OBWs9CUS8mp2bcmZHRZtV8x+
KlFKZziNAIvHXPMtVVUemNB4hjqGDOvqNcApsRTkdxFfVZ9MZAAf+3jRk9rxSZcA
d1nyAAXXp7H7RtChXMkLIUi2XsBEvvm2lJrV
-----END CERTIFICATE-----
