Certificate:
    Data:
        Version: 1 (0x0)
        Serial Number: 2 (0x2)
        Signature Algorithm: sha256WithRSAEncryption
        Issuer: CN=ca-intermediate
        Validity
            Not Before: Jul 18 07:39:58 2023 GMT
            Not After : Dec  3 07:39:58 2050 GMT
        Subject: CN=party_0
        Subject Public Key Info:
            Public Key Algorithm: rsaEncryption
                RSA Public-Key: (2048 bit)
                Modulus:
                    00:c3:7d:05:11:88:25:48:a5:36:9f:e1:f8:68:10:
                    59:3e:6b:45:b0:0a:a0:9f:8b:0f:7e:34:3c:c9:84:
                    c3:d6:f6:9a:fb:b6:99:25:6c:e8:22:84:c8:44:30:
                    04:49:37:87:2f:29:06:2b:23:67:f4:c1:28:de:dd:
                    e4:16:69:91:9d:09:58:09:49:fb:dc:cc:4f:a1:51:
                    fb:70:4f:3d:3f:4f:97:0d:b6:d4:ed:e0:39:5f:72:
                    95:56:c8:ea:b3:09:ab:5c:15:5c:bd:4f:06:0e:e4:
                    16:d6:0d:b3:bd:86:74:5a:32:70:d4:5f:44:ff:15:
                    47:11:23:57:0b:22:e1:ec:90:50:57:de:e5:c1:4a:
                    18:58:21:ba:46:c1:ba:11:e6:e2:73:ab:72:5e:a1:
                    83:b4:64:75:58:1a:db:4c:f8:e1:fa:ef:15:bd:b1:
                    7a:f6:84:a3:1d:35:ec:20:47:1a:f0:42:9d:62:00:
                    0f:d3:8e:27:27:76:59:21:61:47:22:c7:9f:72:d6:
                    9c:ed:87:fa:be:22:c4:6d:6c:33:f9:24:35:ea:b3:
                    2f:f8:91:9c:3a:34:92:23:41:60:2d:71:d3:ff:fa:
                    ef:2e:b5:a6:11:ff:75:35:10:50:30:4f:fb:77:05:
                    c7:bd:b7:e3:21:aa:17:f1:70:0b:35:dc:2c:a5:3b:
                    89:13
                Exponent: 65537 (0x10001)
    Signature Algorithm: sha256WithRSAEncryption
         d9:61:56:b8:0f:67:96:28:d7:0e:72:36:b8:b5:b4:af:56:ac:
         3a:5e:77:d6:f4:ce:d0:a4:d3:09:e7:ab:5b:ec:78:d6:c2:41:
         47:60:73:67:b6:70:dc:dc:4d:6e:b7:2b:f3:69:2a:a4:d4:69:
         e4:8e:d5:6a:62:d7:9e:f2:e3:fd:ce:78:e2:a0:49:f4:66:87:
         8e:ed:24:f3:72:f5:44:4d:62:c3:64:95:ee:61:c2:d2:e8:a9:
         dd:1f:84:ad:e2:be:e6:51:72:1c:b8:c3:ea:cf:60:30:65:b2:
         68:de:b5:ba:81:1d:f6:4c:f9:35:2d:56:a0:01:42:a0:ed:8f:
         23:5c:87:cc:2b:18:f6:98:00:b7:14:ad:9c:fc:54:b8:4c:b6:
         ae:7d:b8:cf:6c:72:ff:84:2d:bf:cc:5e:97:1c:d2:1b:7b:26:
         27:00:99:3b:56:b4:33:70:a8:a4:15:c6:ed:9b:96:2e:20:f5:
         de:65:9b:88:68:4f:1a:ff:42:e5:8e:2e:09:af:6d:df:5e:0c:
         04:54:7e:d1:75:8e:f8:2f:4e:a4:c4:26:e7:e8:b1:4e:08:24:
         49:65:3b:bd:b9:36:a9:f2:28:45:68:42:e9:d8:e3:29:0c:91:
         cd:a2:ee:5c:9f:f4:3e:3d:83:2b:8d:bb:e8:0e:57:c6:33:6b:
         4c:f4:82:b2
-----BEGIN CERTIFICATE-----
MIICojCCAYoCAQIwDQYJKoZIhvcNAQELBQAwGjEYMBYGA1UEAwwPY2EtaW50ZXJt
ZWRpYXRlMCAXDTIzMDcxODA3Mzk1OFoYDzIwNTAxMjAzMDczOTU4WjASMRAwDgYD
VQQDDAdwYXJ0eV8wMIIBIjANBgkqhkiG9w0BAQEFAAOCAQ8AMIIBCgKCAQEAw30F
EYglSKU2n+H4aBBZPmtFsAqgn4sPfjQ8yYTD1vaa+7aZJWzoIoTIRDAESTeHLykG
KyNn9MEo3t3kFmmRnQlYCUn73MxPoVH7cE89P0+XDbbU7eA5X3KVVsjqswmrXBVc
vU8GDuQW1g2zvYZ0WjJw1F9E/xVHESNXCyLh7JBQV97lwUoYWCG6RsG6Eebic6ty
XqGDtGR1WBrbTPjh+u8VvbF69oSjHTXsIEca8EKdYgAP044nJ3ZZIWFHIsefctac
7Yf6viLEbWwz+SQ16rMv+JGcOjSSI0FgLXHT//rvLrWmEf91NRBQME/7dwXHvbfj
IaoX8XALNdwspTuJEwIDAQABMA0GCSqGSIb3DQEBCwUAA4IBAQDZYVa4D2eWKNcO
cja4tbSvVqw6XnfW9M7QpNMJ56tb7HjWwkFHYHNntnDc3E1utyvzaSqk1GnkjtVq
Ytee8uP9znjioEn0ZoeO7STzcvVETWLDZJXuYcLS6KndH4St4r7mUXIcuMPqz2Aw
ZbJo3rW6gR32TPk1LVagAUKg7Y8jXIfMKxj2mAC3FK2c/FS4TLaufbjPbHL/hC2/
zF6XHNIbeyYnAJk7VrQzcKikFcbtm5YuIPXeZZuIaE8a/0Llji4Jr23fXgwEVH7R
dY74L06kxCbn6LFOCCRJZTu9uTap8ihFaELp2OMpDJHNou5cn/Q+PYMrjbvoDlfG
M2tM9IKy
-----END CERTIFICATE-----
